target datalayout = "e-m:e-p270:32:32-p271:32:32-p272:64:64-i64:64-i128:128-f80:128-n8:16:32:64-S128"
target triple = "x86_64-pc-linux-gnu"

%struct.darktable_t = type { %struct.dt_codepath_t, i32, i32, ptr, ptr, ptr, ptr, ptr, ptr, ptr, ptr, ptr, ptr, ptr, ptr, ptr, ptr, ptr, ptr, ptr, ptr, ptr, ptr, ptr, ptr, ptr, ptr, ptr, ptr, ptr, [64 x %struct.dt_pthread_mutex_t], %struct.dt_pthread_mutex_t, %struct.dt_pthread_mutex_t, %struct.dt_pthread_mutex_t, %struct.dt_pthread_mutex_t, %struct.dt_pthread_mutex_t, ptr, ptr, ptr, ptr, ptr, ptr, ptr, ptr, ptr, ptr, ptr, ptr, ptr, %struct.dt_lua_state_t, ptr, double, ptr, i32, [47 x i32], i32, i32, ptr, ptr, %struct.dt_sys_resources_t, %struct.dt_backthumb_t, %struct.dt_gimp_t }
%struct.dt_codepath_t = type { i8, [3 x i8] }
%struct.dt_pthread_mutex_t = type { %union.pthread_mutex_t }
%union.pthread_mutex_t = type { %struct.__pthread_mutex_s }
%struct.__pthread_mutex_s = type { i32, i32, i32, i32, i32, i16, i16, %struct.__pthread_internal_list }
%struct.__pthread_internal_list = type { ptr, ptr }
%struct.dt_lua_state_t = type { i32 }
%struct.dt_sys_resources_t = type { i64, i64, ptr, ptr, i32 }
%struct.dt_backthumb_t = type { double, double, i32, i32, i32, i32 }
%struct.dt_gimp_t = type { i32, ptr, ptr, i32, i32 }
%struct.dt_control_image_enumerator_t = type { ptr, i32, ptr, i32 }
%struct._GList = type { ptr, ptr, ptr }
%struct.dt_image_t = type { i32, i32, float, float, float, float, float, float, float, [64 x i8], [64 x i8], [128 x i8], [64 x i8], [64 x i8], [64 x i8], [64 x i8], i64, i32, %union.dt_image_correction_data_t, [64 x i8], [64 x i8], [64 x i8], [128 x i8], i32, [256 x i8], i32, i32, i32, i32, i32, i32, i32, i32, i32, i32, float, i32, i32, i32, i32, i32, i32, i64, i64, i64, i64, i32, [12 x i8], %struct.dt_iop_buffer_dsc_t, [9 x float], ptr, i32, i32, %struct.dt_image_raw_parameters_t, %struct.dt_image_geoloc_t, %struct._color_harmony_t, i16, [4 x i16], i32, i32, float, float, [4 x float], [4 x [3 x float]], [4 x float], ptr, ptr, i32, i32, [8 x i8] }
%union.dt_image_correction_data_t = type { %struct.anon.16 }
%struct.anon.16 = type { i32, float, [11 x float], [11 x float], [11 x float], [11 x float], [11 x float] }
%struct.dt_iop_buffer_dsc_t = type { i32, i32, i32, [6 x [6 x i8]], %struct.anon.19, [12 x i8], %struct.anon.20, [4 x float], i32, [12 x i8] }
%struct.anon.19 = type { i16, i16 }
%struct.anon.20 = type { i32, [12 x i8], [4 x float] }
%struct.dt_image_raw_parameters_t = type { i32 }
%struct.dt_image_geoloc_t = type { double, double, double }
%struct._color_harmony_t = type { i32, i32, i32 }
%struct.dt_develop_t = type { i32, i32, i32, ptr, double, double, i32, i32, i32, i32, i32, double, i32, i32, i32, ptr, ptr, [8 x i8], %struct.dt_image_t, i32, i32, %struct.dt_pthread_mutex_t, i32, ptr, i32, ptr, i32, ptr, ptr, i32, ptr, ptr, ptr, ptr, i32, i32, ptr, ptr, ptr, ptr, i32, i32, i32, float, float, ptr, i32, %struct.anon.22, %struct.dt_dev_chroma_t, %struct.anon.25, %struct.anon.26, %struct.anon.27, %struct.anon.28, %struct.anon.29, %struct.anon.30, ptr, ptr, %struct.dt_dev_viewport_t, %struct.dt_dev_viewport_t, i32, i32, i32, ptr, [8 x i8] }
%struct.anon.22 = type { %struct.dt_dev_proxy_exposure_t, ptr, %struct.anon.23, %struct.anon.24 }
%struct.dt_dev_proxy_exposure_t = type { ptr, ptr, ptr, ptr }
%struct.anon.23 = type { ptr, ptr, ptr, ptr, ptr, ptr, ptr, ptr, ptr }
%struct.anon.24 = type { ptr, ptr, ptr, ptr, ptr }
%struct.dt_dev_chroma_t = type { ptr, ptr, [4 x double], [4 x double], [4 x double], i32 }
%struct.anon.25 = type { ptr, ptr, ptr }
%struct.anon.26 = type { ptr, ptr, i32, i32, float, float, i32 }
%struct.anon.27 = type { ptr, ptr, i32, i32, i32, float }
%struct.anon.28 = type { ptr }
%struct.anon.29 = type { ptr, i32 }
%struct.anon.30 = type { ptr, ptr, ptr }
%struct.dt_dev_viewport_t = type { ptr, i32, i32, i32, i32, i32, double, double, double, i32, i32, i32, float, float, float, ptr }
%struct.timeval = type { i64, i64 }

@darktable = external global %struct.darktable_t, align 8
@.str.140 = private unnamed_addr constant [28 x i8] c"pasting history to %d image\00", align 1
@.str.141 = private unnamed_addr constant [29 x i8] c"pasting history to %d images\00", align 1
@.str.142 = private unnamed_addr constant [42 x i8] c"plugins/lighttable/copy_history/pastemode\00", align 1
@.str.143 = private unnamed_addr constant [48 x i8] c"skipped pasting history into image being edited\00", align 1

; Function Attrs: inlinehint nounwind uwtable
define internal double @dt_get_wtime() #5 {
  %1 = alloca %struct.timeval, align 8
  call void @llvm.lifetime.start.p0(i64 16, ptr %1) #14
  %2 = call i32 @gettimeofday(ptr noundef %1, ptr noundef null) #14
  %3 = getelementptr inbounds nuw %struct.timeval, ptr %1, i32 0, i32 0
  %4 = load i64, ptr %3, align 8, !tbaa !263
  %5 = sub nsw i64 %4, 1290608000
  %6 = sitofp i64 %5 to double
  %7 = getelementptr inbounds nuw %struct.timeval, ptr %1, i32 0, i32 1
  %8 = load i64, ptr %7, align 8, !tbaa !265
  %9 = sitofp i64 %8 to double
  %10 = fmul reassoc nsz arcp contract afn double 0x3EB0C6F7A0B5ED8D, %9
  %11 = fadd reassoc nsz arcp contract afn double %6, %10
  call void @llvm.lifetime.end.p0(i64 16, ptr %1) #14
  ret double %11
}

; Function Attrs: nounwind uwtable
define internal void @_update_progress(ptr noundef %0, double noundef %1, ptr noundef %2) #0 {
  %4 = alloca ptr, align 8
  %5 = alloca double, align 8
  %6 = alloca ptr, align 8
  %7 = alloca double, align 8
  store ptr %0, ptr %4, align 8, !tbaa !51
  store double %1, ptr %5, align 8, !tbaa !61
  store ptr %2, ptr %6, align 8, !tbaa !266
  call void @llvm.lifetime.start.p0(i64 8, ptr %7) #14
  %8 = call reassoc nsz arcp contract afn double @dt_get_wtime()
  store double %8, ptr %7, align 8, !tbaa !61
  %9 = load double, ptr %7, align 8, !tbaa !61
  %10 = load ptr, ptr %6, align 8, !tbaa !266
  %11 = load double, ptr %10, align 8, !tbaa !61
  %12 = fadd reassoc nsz arcp contract afn double %11, 5.000000e-01
  %13 = fcmp reassoc nsz arcp contract afn ogt double %9, %12
  br i1 %13, label %14, label %31

14:                                               ; preds = %3
  %15 = load ptr, ptr %4, align 8, !tbaa !51
  %16 = load double, ptr %5, align 8, !tbaa !61
  %17 = fcmp reassoc nsz arcp contract afn ogt double %16, 1.000000e+00
  br i1 %17, label %18, label %19

18:                                               ; preds = %14
  br label %27

19:                                               ; preds = %14
  %20 = load double, ptr %5, align 8, !tbaa !61
  %21 = fcmp reassoc nsz arcp contract afn olt double %20, 0.000000e+00
  br i1 %21, label %22, label %23

22:                                               ; preds = %19
  br label %25

23:                                               ; preds = %19
  %24 = load double, ptr %5, align 8, !tbaa !61
  br label %25

25:                                               ; preds = %23, %22
  %26 = phi reassoc nsz arcp contract afn double [ 0.000000e+00, %22 ], [ %24, %23 ]
  br label %27

27:                                               ; preds = %25, %18
  %28 = phi reassoc nsz arcp contract afn double [ 1.000000e+00, %18 ], [ %26, %25 ]
  call void @dt_control_job_set_progress(ptr noundef %15, double noundef %28)
  %29 = load double, ptr %7, align 8, !tbaa !61
  %30 = load ptr, ptr %6, align 8, !tbaa !266
  store double %29, ptr %30, align 8, !tbaa !61
  br label %31

31:                                               ; preds = %27, %3
  call void @llvm.lifetime.end.p0(i64 8, ptr %7) #14
  ret void
}

; Function Attrs: inlinehint nounwind uwtable
define internal i32 @_safe_history_job_on_imgid(ptr noundef %0, i32 noundef %1) #5 {
  %3 = alloca ptr, align 8
  %4 = alloca i32, align 4
  store ptr %0, ptr %3, align 8, !tbaa !51
  store i32 %1, ptr %4, align 4, !tbaa !50
  %5 = load ptr, ptr %3, align 8, !tbaa !51
  %6 = call i32 @dt_control_job_is_synchronous(ptr noundef %5)
  %7 = icmp ne i32 %6, 0
  br i1 %7, label %18, label %8

8:                                                ; preds = %2
  %9 = load ptr, ptr getelementptr inbounds nuw (%struct.darktable_t, ptr @darktable, i32 0, i32 9), align 8, !tbaa !143
  %10 = icmp ne ptr %9, null
  br i1 %10, label %11, label %18

11:                                               ; preds = %8
  %12 = load ptr, ptr getelementptr inbounds nuw (%struct.darktable_t, ptr @darktable, i32 0, i32 9), align 8, !tbaa !143
  %13 = getelementptr inbounds nuw %struct.dt_develop_t, ptr %12, i32 0, i32 18
  %14 = getelementptr inbounds nuw %struct.dt_image_t, ptr %13, i32 0, i32 40
  %15 = load i32, ptr %14, align 8, !tbaa !144
  %16 = load i32, ptr %4, align 4, !tbaa !50
  %17 = icmp ne i32 %15, %16
  br label %18

18:                                               ; preds = %11, %8, %2
  %19 = phi i1 [ true, %8 ], [ true, %2 ], [ %17, %11 ]
  %20 = zext i1 %19 to i32
  ret i32 %20
}

; Function Attrs: inlinehint nounwind uwtable
define internal i32 @_job_cancelled(ptr noundef %0) #5 {
  %2 = alloca ptr, align 8
  store ptr %0, ptr %2, align 8, !tbaa !51
  %3 = load ptr, ptr %2, align 8, !tbaa !51
  %4 = call i32 @dt_control_job_get_state(ptr noundef %3)
  %5 = icmp eq i32 %4, 4
  %6 = zext i1 %5 to i32
  ret i32 %6
}

; Function Attrs: nounwind uwtable
define internal i32 @_control_paste_history_job_run(ptr noundef %0) #0 {
  %2 = alloca ptr, align 8
  %3 = alloca ptr, align 8
  %4 = alloca ptr, align 8
  %5 = alloca i32, align 4
  %6 = alloca double, align 8
  %7 = alloca [512 x i8], align 16
  %8 = alloca i32, align 4
  %9 = alloca i32, align 4
  %10 = alloca double, align 8
  %11 = alloca ptr, align 8
  %12 = alloca i32, align 4
  store ptr %0, ptr %2, align 8, !tbaa !51
  call void @llvm.lifetime.start.p0(i64 8, ptr %3) #14
  %13 = load ptr, ptr %2, align 8, !tbaa !51
  %14 = call ptr @dt_control_job_get_params(ptr noundef %13)
  store ptr %14, ptr %3, align 8, !tbaa !53
  call void @llvm.lifetime.start.p0(i64 8, ptr %4) #14
  %15 = load ptr, ptr %3, align 8, !tbaa !53
  %16 = getelementptr inbounds nuw %struct.dt_control_image_enumerator_t, ptr %15, i32 0, i32 2
  %17 = load ptr, ptr %16, align 8, !tbaa !59
  store ptr %17, ptr %4, align 8, !tbaa !60
  call void @llvm.lifetime.start.p0(i64 4, ptr %5) #14
  %18 = load ptr, ptr %4, align 8, !tbaa !60
  %19 = call i32 @g_list_length(ptr noundef %18)
  store i32 %19, ptr %5, align 4, !tbaa !50
  call void @llvm.lifetime.start.p0(i64 8, ptr %6) #14
  store double 0.000000e+00, ptr %6, align 8, !tbaa !61
  call void @llvm.lifetime.start.p0(i64 512, ptr %7) #14
  call void @llvm.memset.p0.i64(ptr align 16 %7, i8 0, i64 512, i1 false)
  %20 = getelementptr inbounds [512 x i8], ptr %7, i64 0, i64 0
  %21 = load i32, ptr %5, align 4, !tbaa !50
  %22 = zext i32 %21 to i64
  %23 = call ptr @dcngettext(ptr noundef null, ptr noundef @.str.140, ptr noundef @.str.141, i64 noundef %22, i32 noundef 5) #14
  %24 = load i32, ptr %5, align 4, !tbaa !50
  %25 = call i32 (ptr, i64, ptr, ...) @snprintf(ptr noundef %20, i64 noundef 512, ptr noundef %23, i32 noundef %24) #14
  call void @llvm.lifetime.start.p0(i64 4, ptr %8) #14
  %26 = call i32 @dt_conf_get_int(ptr noundef @.str.142)
  store i32 %26, ptr %8, align 4, !tbaa !50
  call void @llvm.lifetime.start.p0(i64 4, ptr %9) #14
  %27 = load i32, ptr %8, align 4, !tbaa !50
  %28 = icmp eq i32 %27, 0
  %29 = select i1 %28, i32 1, i32 0
  store i32 %29, ptr %9, align 4, !tbaa !50
  %30 = load ptr, ptr %2, align 8, !tbaa !51
  %31 = getelementptr inbounds [512 x i8], ptr %7, i64 0, i64 0
  call void @dt_control_job_set_progress_message(ptr noundef %30, ptr noundef %31)
  %32 = load ptr, ptr getelementptr inbounds nuw (%struct.darktable_t, ptr @darktable, i32 0, i32 27), align 8, !tbaa !92
  call void @dt_undo_start_group(ptr noundef %32, i32 noundef 128)
  call void @llvm.lifetime.start.p0(i64 8, ptr %10) #14
  store double 0.000000e+00, ptr %10, align 8, !tbaa !61
  call void @llvm.lifetime.start.p0(i64 8, ptr %11) #14
  store ptr null, ptr %11, align 8, !tbaa !60
  br label %33

33:                                               ; preds = %85, %1
  %34 = load ptr, ptr %4, align 8, !tbaa !60
  %35 = icmp ne ptr %34, null
  br i1 %35, label %36, label %41

36:                                               ; preds = %33
  %37 = load ptr, ptr %2, align 8, !tbaa !51
  %38 = call i32 @_job_cancelled(ptr noundef %37)
  %39 = icmp ne i32 %38, 0
  %40 = xor i1 %39, true
  br label %41

41:                                               ; preds = %36, %33
  %42 = phi i1 [ false, %33 ], [ %40, %36 ]
  br i1 %42, label %43, label %87

43:                                               ; preds = %41
  call void @llvm.lifetime.start.p0(i64 4, ptr %12) #14
  %44 = load ptr, ptr %4, align 8, !tbaa !60
  %45 = getelementptr inbounds nuw %struct._GList, ptr %44, i32 0, i32 0
  %46 = load ptr, ptr %45, align 8, !tbaa !70
  %47 = ptrtoint ptr %46 to i64
  %48 = trunc i64 %47 to i32
  store i32 %48, ptr %12, align 4, !tbaa !50
  %49 = load ptr, ptr %2, align 8, !tbaa !51
  %50 = load i32, ptr %12, align 4, !tbaa !50
  %51 = call i32 @_safe_history_job_on_imgid(ptr noundef %49, i32 noundef %50)
  %52 = icmp ne i32 %51, 0
  br i1 %52, label %53, label %67

53:                                               ; preds = %43
  %54 = load i32, ptr %12, align 4, !tbaa !50
  %55 = load i32, ptr %9, align 4, !tbaa !50
  %56 = call i32 @dt_history_paste(i32 noundef %54, i32 noundef %55, i32 noundef 0)
  %57 = icmp ne i32 %56, 0
  br i1 %57, label %58, label %66

58:                                               ; preds = %53
  %59 = load ptr, ptr %11, align 8, !tbaa !60
  %60 = load ptr, ptr %4, align 8, !tbaa !60
  %61 = getelementptr inbounds nuw %struct._GList, ptr %60, i32 0, i32 0
  %62 = load ptr, ptr %61, align 8, !tbaa !70
  %63 = ptrtoint ptr %62 to i64
  %64 = inttoptr i64 %63 to ptr
  %65 = call ptr @g_list_prepend(ptr noundef %59, ptr noundef %64)
  store ptr %65, ptr %11, align 8, !tbaa !60
  br label %66

66:                                               ; preds = %58, %53
  br label %69

67:                                               ; preds = %43
  %68 = call ptr @dcgettext(ptr noundef null, ptr noundef @.str.143, i32 noundef 5) #14
  call void (ptr, ...) @dt_control_log(ptr noundef %68)
  br label %69

69:                                               ; preds = %67, %66
  %70 = load i32, ptr %5, align 4, !tbaa !50
  %71 = uitofp i32 %70 to double
  %72 = fdiv reassoc nsz arcp contract afn double 1.000000e+00, %71
  %73 = load double, ptr %6, align 8, !tbaa !61
  %74 = fadd reassoc nsz arcp contract afn double %73, %72
  store double %74, ptr %6, align 8, !tbaa !61
  %75 = load ptr, ptr %2, align 8, !tbaa !51
  %76 = load double, ptr %6, align 8, !tbaa !61
  call void @_update_progress(ptr noundef %75, double noundef %76, ptr noundef %10)
  call void @llvm.lifetime.end.p0(i64 4, ptr %12) #14
  br label %77

77:                                               ; preds = %69
  %78 = load ptr, ptr %4, align 8, !tbaa !60
  %79 = icmp ne ptr %78, null
  br i1 %79, label %80, label %84

80:                                               ; preds = %77
  %81 = load ptr, ptr %4, align 8, !tbaa !60
  %82 = getelementptr inbounds nuw %struct._GList, ptr %81, i32 0, i32 1
  %83 = load ptr, ptr %82, align 8, !tbaa !72
  br label %85

84:                                               ; preds = %77
  br label %85

85:                                               ; preds = %84, %80
  %86 = phi ptr [ %83, %80 ], [ null, %84 ]
  store ptr %86, ptr %4, align 8, !tbaa !60
  br label %33

87:                                               ; preds = %41
  %88 = load ptr, ptr getelementptr inbounds nuw (%struct.darktable_t, ptr @darktable, i32 0, i32 27), align 8, !tbaa !92
  call void @dt_undo_end_group(ptr noundef %88)
  %89 = load ptr, ptr getelementptr inbounds nuw (%struct.darktable_t, ptr @darktable, i32 0, i32 21), align 8, !tbaa !83
  %90 = load ptr, ptr %3, align 8, !tbaa !53
  %91 = getelementptr inbounds nuw %struct.dt_control_image_enumerator_t, ptr %90, i32 0, i32 2
  %92 = load ptr, ptr %91, align 8, !tbaa !59
  call void @dt_collection_update_query(ptr noundef %89, i32 noundef 3, i32 noundef 43, ptr noundef %92)
  %93 = load ptr, ptr %3, align 8, !tbaa !53
  %94 = getelementptr inbounds nuw %struct.dt_control_image_enumerator_t, ptr %93, i32 0, i32 2
  store ptr null, ptr %94, align 8, !tbaa !59
  %95 = call i32 @dt_view_get_current()
  %96 = icmp eq i32 %95, 2
  br i1 %96, label %97, label %99

97:                                               ; preds = %87
  %98 = load ptr, ptr getelementptr inbounds nuw (%struct.darktable_t, ptr @darktable, i32 0, i32 9), align 8, !tbaa !143
  call void @dt_dev_pixelpipe_rebuild(ptr noundef %98)
  br label %99

99:                                               ; preds = %97, %87
  %100 = load ptr, ptr %11, align 8, !tbaa !60
  %101 = icmp ne ptr %100, null
  br i1 %101, label %102, label %105

102:                                              ; preds = %99
  %103 = load ptr, ptr %11, align 8, !tbaa !60
  call void @dt_image_synch_xmps(ptr noundef %103)
  %104 = load ptr, ptr %11, align 8, !tbaa !60
  call void @g_list_free(ptr noundef %104)
  br label %105

105:                                              ; preds = %102, %99
  call void @llvm.lifetime.end.p0(i64 8, ptr %11) #14
  call void @llvm.lifetime.end.p0(i64 8, ptr %10) #14
  call void @llvm.lifetime.end.p0(i64 4, ptr %9) #14
  call void @llvm.lifetime.end.p0(i64 4, ptr %8) #14
  call void @llvm.lifetime.end.p0(i64 512, ptr %7) #14
  call void @llvm.lifetime.end.p0(i64 8, ptr %6) #14
  call void @llvm.lifetime.end.p0(i64 4, ptr %5) #14
  call void @llvm.lifetime.end.p0(i64 8, ptr %4) #14
  call void @llvm.lifetime.end.p0(i64 8, ptr %3) #14
  ret i32 0
}