; Function Attrs: nounwind uwtable
define internal noundef i32 @_control_paste_history_job_run(ptr noundef %0) #0 {
  %2 = alloca %struct.timeval, align 8
  %3 = alloca [512 x i8], align 16
  %4 = tail call ptr @dt_control_job_get_params(ptr noundef %0) #17
  %5 = getelementptr inbounds nuw i8, ptr %4, i64 16
  %6 = load ptr, ptr %5, align 8, !tbaa !52
  %7 = tail call i32 @g_list_length(ptr noundef %6) #17
  call void @llvm.lifetime.start.p0(i64 512, ptr nonnull %3) #17
  call void @llvm.memset.p0.i64(ptr noundef nonnull align 16 dereferenceable(512) %3, i8 0, i64 512, i1 false)
  %8 = zext i32 %7 to i64
  %9 = tail call ptr @dcngettext(ptr noundef null, ptr noundef nonnull @.str.140, ptr noundef nonnull @.str.141, i64 noundef %8, i32 noundef 5) #17
  %10 = call i32 (ptr, i64, ptr, ...) @snprintf(ptr noundef nonnull dereferenceable(1) %3, i64 noundef 512, ptr noundef %9, i32 noundef %7) #17
  %11 = tail call i32 @dt_conf_get_int(ptr noundef nonnull @.str.142) #17
  %12 = icmp eq i32 %11, 0
  %13 = zext i1 %12 to i32
  call void @dt_control_job_set_progress_message(ptr noundef %0, ptr noundef nonnull %3) #17
  %14 = load ptr, ptr getelementptr inbounds nuw (i8, ptr @darktable, i64 208), align 8, !tbaa !87
  call void @dt_undo_start_group(ptr noundef %14, i32 noundef 128) #17
  %.not37 = icmp eq ptr %6, null
  br i1 %.not37, label %.critedge, label %.lr.ph

.lr.ph:                                           ; preds = %1
  %15 = uitofp i32 %7 to double
  %16 = fdiv reassoc nsz arcp contract afn double 1.000000e+00, %15
  %17 = getelementptr inbounds nuw i8, ptr %2, i64 8
  br label %18

18:                                               ; preds = %.lr.ph, %_update_progress.exit
  %.041 = phi ptr [ %6, %.lr.ph ], [ %54, %_update_progress.exit ]
  %.02640 = phi ptr [ null, %.lr.ph ], [ %.1, %_update_progress.exit ]
  %.02739 = phi double [ 0.000000e+00, %.lr.ph ], [ %37, %_update_progress.exit ]
  %.03238 = phi double [ 0.000000e+00, %.lr.ph ], [ %.133, %_update_progress.exit ]
  %19 = call i32 @dt_control_job_get_state(ptr noundef %0) #17
  %.not35 = icmp eq i32 %19, 4
  br i1 %.not35, label %.critedge, label %20

20:                                               ; preds = %18
  %21 = load ptr, ptr %.041, align 8, !tbaa !61
  %22 = ptrtoint ptr %21 to i64
  %23 = trunc i64 %22 to i32
  %24 = call i32 @dt_control_job_is_synchronous(ptr noundef %0) #17
  %25 = icmp eq i32 %24, 0
  %26 = load ptr, ptr getelementptr inbounds nuw (i8, ptr @darktable, i64 64), align 8
  %27 = icmp ne ptr %26, null
  %or.cond.i = select i1 %25, i1 %27, i1 false
  br i1 %or.cond.i, label %_safe_history_job_on_imgid.exit, label %_safe_history_job_on_imgid.exit.thread

_safe_history_job_on_imgid.exit:                  ; preds = %20
  %28 = getelementptr inbounds nuw i8, ptr %26, i64 1544
  %29 = load i32, ptr %28, align 8, !tbaa !130
  %.not36 = icmp eq i32 %29, %23
  br i1 %.not36, label %34, label %_safe_history_job_on_imgid.exit.thread

_safe_history_job_on_imgid.exit.thread:           ; preds = %20, %_safe_history_job_on_imgid.exit
  %30 = call i32 @dt_history_paste(i32 noundef %23, i32 noundef %13, i32 noundef 0) #17
  %.not31 = icmp eq i32 %30, 0
  br i1 %.not31, label %36, label %31

31:                                               ; preds = %_safe_history_job_on_imgid.exit.thread
  %32 = load ptr, ptr %.041, align 8, !tbaa !61
  %33 = call ptr @g_list_prepend(ptr noundef %.02640, ptr noundef %32) #17
  br label %36

34:                                               ; preds = %_safe_history_job_on_imgid.exit
  %35 = call ptr @dcgettext(ptr noundef null, ptr noundef nonnull @.str.143, i32 noundef 5) #17
  call void (ptr, ...) @dt_control_log(ptr noundef %35) #17
  br label %36

36:                                               ; preds = %_safe_history_job_on_imgid.exit.thread, %31, %34
  %.1 = phi ptr [ %33, %31 ], [ %.02640, %_safe_history_job_on_imgid.exit.thread ], [ %.02640, %34 ]
  %37 = fadd reassoc nsz arcp contract afn double %.02739, %16
  call void @llvm.lifetime.start.p0(i64 16, ptr nonnull %2) #17
  %38 = call i32 @gettimeofday(ptr noundef nonnull %2, ptr noundef null) #17
  %39 = load i64, ptr %2, align 8, !tbaa !88
  %40 = add nsw i64 %39, -1290608000
  %41 = sitofp i64 %40 to double
  %42 = load i64, ptr %17, align 8, !tbaa !90
  %43 = sitofp i64 %42 to double
  %44 = fmul reassoc nsz arcp contract afn double %43, 0x3EB0C6F7A0B5ED8D
  %45 = fadd reassoc nsz arcp contract afn double %44, %41
  call void @llvm.lifetime.end.p0(i64 16, ptr nonnull %2) #17
  %46 = fadd reassoc nsz arcp contract afn double %.03238, 5.000000e-01
  %47 = fcmp reassoc nsz arcp contract afn ogt double %45, %46
  br i1 %47, label %48, label %_update_progress.exit

48:                                               ; preds = %36
  %49 = fcmp reassoc nsz arcp contract afn ogt double %37, 1.000000e+00
  %50 = fcmp reassoc nsz arcp contract afn olt double %37, 0.000000e+00
  %51 = select reassoc nsz arcp contract afn i1 %50, double 0.000000e+00, double %37
  %52 = select reassoc nsz arcp contract afn i1 %49, double 1.000000e+00, double %51
  call void @dt_control_job_set_progress(ptr noundef %0, double noundef %52) #17
  br label %_update_progress.exit

_update_progress.exit:                            ; preds = %36, %48
  %.133 = phi nsz double [ %45, %48 ], [ %.03238, %36 ]
  %53 = getelementptr inbounds nuw i8, ptr %.041, i64 8
  %54 = load ptr, ptr %53, align 8, !tbaa !63
  %.not = icmp eq ptr %54, null
  br i1 %.not, label %.critedge, label %18

.critedge:                                        ; preds = %18, %_update_progress.exit, %1
  %.026.lcssa = phi ptr [ null, %1 ], [ %.1, %_update_progress.exit ], [ %.02640, %18 ]
  %55 = load ptr, ptr getelementptr inbounds nuw (i8, ptr @darktable, i64 208), align 8, !tbaa !87
  call void @dt_undo_end_group(ptr noundef %55) #17
  %56 = load ptr, ptr getelementptr inbounds nuw (i8, ptr @darktable, i64 160), align 8, !tbaa !75
  %57 = load ptr, ptr %5, align 8, !tbaa !52
  call void @dt_collection_update_query(ptr noundef %56, i32 noundef 3, i32 noundef 43, ptr noundef %57) #17
  store ptr null, ptr %5, align 8, !tbaa !52
  %58 = call i32 @dt_view_get_current() #17
  %59 = icmp eq i32 %58, 2
  br i1 %59, label %60, label %62

60:                                               ; preds = %.critedge
  %61 = load ptr, ptr getelementptr inbounds nuw (i8, ptr @darktable, i64 64), align 8, !tbaa !129
  call void @dt_dev_pixelpipe_rebuild(ptr noundef %61) #17
  br label %62

62:                                               ; preds = %60, %.critedge
  %.not29 = icmp eq ptr %.026.lcssa, null
  br i1 %.not29, label %64, label %63

63:                                               ; preds = %62
  call void @dt_image_synch_xmps(ptr noundef nonnull %.026.lcssa) #17
  call void @g_list_free(ptr noundef nonnull %.026.lcssa) #17
  br label %64

64:                                               ; preds = %63, %62
  call void @llvm.lifetime.end.p0(i64 512, ptr nonnull %3) #17
  ret i32 0
}